
LineTracer.elf:     file format elf32-avr

Sections:
Idx Name          Size      VMA       LMA       File off  Algn
  0 .data         0000001c  00800100  00000942  000009d6  2**0
                  CONTENTS, ALLOC, LOAD, DATA
  1 .text         00000942  00000000  00000000  00000094  2**1
                  CONTENTS, ALLOC, LOAD, READONLY, CODE
  2 .bss          00000010  0080011c  0080011c  000009f2  2**0
                  ALLOC
  3 .comment      00000030  00000000  00000000  000009f2  2**0
                  CONTENTS, READONLY
  4 .note.gnu.avr.deviceinfo 00000040  00000000  00000000  00000a24  2**2
                  CONTENTS, READONLY
  5 .debug_aranges 000000a0  00000000  00000000  00000a64  2**0
                  CONTENTS, READONLY, DEBUGGING
  6 .debug_info   00000f62  00000000  00000000  00000b04  2**0
                  CONTENTS, READONLY, DEBUGGING
  7 .debug_abbrev 000008ed  00000000  00000000  00001a66  2**0
                  CONTENTS, READONLY, DEBUGGING
  8 .debug_line   00000a4f  00000000  00000000  00002353  2**0
                  CONTENTS, READONLY, DEBUGGING
  9 .debug_frame  0000019c  00000000  00000000  00002da4  2**2
                  CONTENTS, READONLY, DEBUGGING
 10 .debug_str    000005f4  00000000  00000000  00002f40  2**0
                  CONTENTS, READONLY, DEBUGGING
 11 .debug_loc    00000652  00000000  00000000  00003534  2**0
                  CONTENTS, READONLY, DEBUGGING
 12 .debug_ranges 000000a8  00000000  00000000  00003b86  2**0
                  CONTENTS, READONLY, DEBUGGING

Disassembly of section .text:

00000000 <__vectors>:
   0:	6d c0       	rjmp	.+218    	; 0xdc <__ctors_end>
   2:	00 00       	nop
   4:	88 c0       	rjmp	.+272    	; 0x116 <__bad_interrupt>
   6:	00 00       	nop
   8:	86 c0       	rjmp	.+268    	; 0x116 <__bad_interrupt>
   a:	00 00       	nop
   c:	84 c0       	rjmp	.+264    	; 0x116 <__bad_interrupt>
   e:	00 00       	nop
  10:	82 c0       	rjmp	.+260    	; 0x116 <__bad_interrupt>
  12:	00 00       	nop
  14:	ab c1       	rjmp	.+854    	; 0x36c <__vector_5>
  16:	00 00       	nop
  18:	95 c1       	rjmp	.+810    	; 0x344 <__vector_6>
  1a:	00 00       	nop
  1c:	7c c0       	rjmp	.+248    	; 0x116 <__bad_interrupt>
  1e:	00 00       	nop
  20:	7a c0       	rjmp	.+244    	; 0x116 <__bad_interrupt>
  22:	00 00       	nop
  24:	78 c0       	rjmp	.+240    	; 0x116 <__bad_interrupt>
  26:	00 00       	nop
  28:	76 c0       	rjmp	.+236    	; 0x116 <__bad_interrupt>
  2a:	00 00       	nop
  2c:	74 c0       	rjmp	.+232    	; 0x116 <__bad_interrupt>
  2e:	00 00       	nop
  30:	72 c0       	rjmp	.+228    	; 0x116 <__bad_interrupt>
  32:	00 00       	nop
  34:	70 c0       	rjmp	.+224    	; 0x116 <__bad_interrupt>
  36:	00 00       	nop
  38:	6e c0       	rjmp	.+220    	; 0x116 <__bad_interrupt>
  3a:	00 00       	nop
  3c:	74 c2       	rjmp	.+1256   	; 0x526 <__vector_15>
  3e:	00 00       	nop
  40:	6a c0       	rjmp	.+212    	; 0x116 <__bad_interrupt>
  42:	00 00       	nop
  44:	68 c0       	rjmp	.+208    	; 0x116 <__bad_interrupt>
  46:	00 00       	nop
  48:	66 c0       	rjmp	.+204    	; 0x116 <__bad_interrupt>
  4a:	00 00       	nop
  4c:	64 c0       	rjmp	.+200    	; 0x116 <__bad_interrupt>
  4e:	00 00       	nop
  50:	62 c0       	rjmp	.+196    	; 0x116 <__bad_interrupt>
  52:	00 00       	nop
  54:	60 c0       	rjmp	.+192    	; 0x116 <__bad_interrupt>
  56:	00 00       	nop
  58:	5e c0       	rjmp	.+188    	; 0x116 <__bad_interrupt>
  5a:	00 00       	nop
  5c:	5c c0       	rjmp	.+184    	; 0x116 <__bad_interrupt>
  5e:	00 00       	nop
  60:	5a c0       	rjmp	.+180    	; 0x116 <__bad_interrupt>
  62:	00 00       	nop
  64:	58 c0       	rjmp	.+176    	; 0x116 <__bad_interrupt>
  66:	00 00       	nop
  68:	56 c0       	rjmp	.+172    	; 0x116 <__bad_interrupt>
  6a:	00 00       	nop
  6c:	54 c0       	rjmp	.+168    	; 0x116 <__bad_interrupt>
  6e:	00 00       	nop
  70:	52 c0       	rjmp	.+164    	; 0x116 <__bad_interrupt>
  72:	00 00       	nop
  74:	50 c0       	rjmp	.+160    	; 0x116 <__bad_interrupt>
  76:	00 00       	nop
  78:	4e c0       	rjmp	.+156    	; 0x116 <__bad_interrupt>
  7a:	00 00       	nop
  7c:	4c c0       	rjmp	.+152    	; 0x116 <__bad_interrupt>
  7e:	00 00       	nop
  80:	4a c0       	rjmp	.+148    	; 0x116 <__bad_interrupt>
  82:	00 00       	nop
  84:	48 c0       	rjmp	.+144    	; 0x116 <__bad_interrupt>
  86:	00 00       	nop
  88:	46 c0       	rjmp	.+140    	; 0x116 <__bad_interrupt>
  8a:	00 00       	nop
  8c:	cf 00       	.word	0x00cf	; ????
  8e:	d3 00       	.word	0x00d3	; ????
  90:	d1 00       	.word	0x00d1	; ????
  92:	d7 00       	.word	0x00d7	; ????
  94:	dd 00       	.word	0x00dd	; ????
  96:	d5 00       	.word	0x00d5	; ????
  98:	dd 00       	.word	0x00dd	; ????
  9a:	db 00       	.word	0x00db	; ????
  9c:	f8 00       	.word	0x00f8	; ????
  9e:	dd 00       	.word	0x00dd	; ????
  a0:	dd 00       	.word	0x00dd	; ????
  a2:	d9 00       	.word	0x00d9	; ????
  a4:	e8 00       	.word	0x00e8	; ????
  a6:	ec 00       	.word	0x00ec	; ????
  a8:	ea 00       	.word	0x00ea	; ????
  aa:	f0 00       	.word	0x00f0	; ????
  ac:	f6 00       	.word	0x00f6	; ????
  ae:	ee 00       	.word	0x00ee	; ????
  b0:	f6 00       	.word	0x00f6	; ????
  b2:	f4 00       	.word	0x00f4	; ????
  b4:	fa 00       	.word	0x00fa	; ????
  b6:	f6 00       	.word	0x00f6	; ????
  b8:	f6 00       	.word	0x00f6	; ????
  ba:	f2 00       	.word	0x00f2	; ????
  bc:	85 02       	muls	r24, r21
  be:	5f 02       	muls	r21, r31
  c0:	59 02       	muls	r21, r25
  c2:	90 02       	muls	r25, r16
  c4:	59 02       	muls	r21, r25
  c6:	4d 02       	muls	r20, r29
  c8:	59 02       	muls	r21, r25
  ca:	4d 02       	muls	r20, r29
  cc:	72 02       	muls	r23, r18
  ce:	90 02       	muls	r25, r16
  d0:	53 02       	muls	r21, r19
  d2:	2f 02       	muls	r18, r31
  d4:	90 02       	muls	r25, r16
  d6:	3e 02       	muls	r19, r30
  d8:	53 02       	muls	r21, r19
  da:	fc 01       	movw	r30, r24

000000dc <__ctors_end>:
  dc:	11 24       	eor	r1, r1
  de:	1f be       	out	0x3f, r1	; 63
  e0:	cf ef       	ldi	r28, 0xFF	; 255
  e2:	d0 e1       	ldi	r29, 0x10	; 16
  e4:	de bf       	out	0x3e, r29	; 62
  e6:	cd bf       	out	0x3d, r28	; 61

000000e8 <__do_copy_data>:
  e8:	11 e0       	ldi	r17, 0x01	; 1
  ea:	a0 e0       	ldi	r26, 0x00	; 0
  ec:	b1 e0       	ldi	r27, 0x01	; 1
  ee:	e2 e4       	ldi	r30, 0x42	; 66
  f0:	f9 e0       	ldi	r31, 0x09	; 9
  f2:	00 e0       	ldi	r16, 0x00	; 0
  f4:	0b bf       	out	0x3b, r16	; 59
  f6:	02 c0       	rjmp	.+4      	; 0xfc <__do_copy_data+0x14>
  f8:	07 90       	elpm	r0, Z+
  fa:	0d 92       	st	X+, r0
  fc:	ac 31       	cpi	r26, 0x1C	; 28
  fe:	b1 07       	cpc	r27, r17
 100:	d9 f7       	brne	.-10     	; 0xf8 <__do_copy_data+0x10>

00000102 <__do_clear_bss>:
 102:	21 e0       	ldi	r18, 0x01	; 1
 104:	ac e1       	ldi	r26, 0x1C	; 28
 106:	b1 e0       	ldi	r27, 0x01	; 1
 108:	01 c0       	rjmp	.+2      	; 0x10c <.do_clear_bss_start>

0000010a <.do_clear_bss_loop>:
 10a:	1d 92       	st	X+, r1

0000010c <.do_clear_bss_start>:
 10c:	ac 32       	cpi	r26, 0x2C	; 44
 10e:	b2 07       	cpc	r27, r18
 110:	e1 f7       	brne	.-8      	; 0x10a <.do_clear_bss_loop>
 112:	a2 d3       	rcall	.+1860   	; 0x858 <main>
 114:	14 c4       	rjmp	.+2088   	; 0x93e <_exit>

00000116 <__bad_interrupt>:
 116:	74 cf       	rjmp	.-280    	; 0x0 <__vectors>

00000118 <initFlag>:
			case 0x80: step=0x10; break;
			default: step=0x80; break;
		}
	}
	return step;
}
 118:	10 92 29 01 	sts	0x0129, r1	; 0x800129 <motorForceLeftFlag>
 11c:	10 92 28 01 	sts	0x0128, r1	; 0x800128 <motorForceRightFlag>
 120:	10 92 27 01 	sts	0x0127, r1	; 0x800127 <countStopSign>
 124:	10 92 26 01 	sts	0x0126, r1	; 0x800126 <stopSign>
 128:	10 92 25 01 	sts	0x0125, r1	; 0x800125 <forceRightSign>
 12c:	10 92 24 01 	sts	0x0124, r1	; 0x800124 <forceLeftSign>
 130:	10 92 23 01 	sts	0x0123, r1	; 0x800123 <calibLeft>
 134:	10 92 22 01 	sts	0x0122, r1	; 0x800122 <calibRight>
 138:	84 e6       	ldi	r24, 0x64	; 100
 13a:	81 bf       	out	0x31, r24	; 49
 13c:	08 95       	ret

0000013e <initPort>:
 13e:	1b ba       	out	0x1b, r1	; 27
 140:	1a ba       	out	0x1a, r1	; 26
 142:	18 ba       	out	0x18, r1	; 24
 144:	17 ba       	out	0x17, r1	; 23
 146:	15 ba       	out	0x15, r1	; 21
 148:	14 ba       	out	0x14, r1	; 20
 14a:	12 ba       	out	0x12, r1	; 18
 14c:	8f ef       	ldi	r24, 0xFF	; 255
 14e:	81 bb       	out	0x11, r24	; 17
 150:	13 b8       	out	0x03, r1	; 3
 152:	12 b8       	out	0x02, r1	; 2
 154:	10 92 62 00 	sts	0x0062, r1	; 0x800062 <__TEXT_REGION_LENGTH__+0x7e0062>
 158:	10 92 61 00 	sts	0x0061, r1	; 0x800061 <__TEXT_REGION_LENGTH__+0x7e0061>
 15c:	10 92 65 00 	sts	0x0065, r1	; 0x800065 <__TEXT_REGION_LENGTH__+0x7e0065>
 160:	83 e0       	ldi	r24, 0x03	; 3
 162:	80 93 64 00 	sts	0x0064, r24	; 0x800064 <__TEXT_REGION_LENGTH__+0x7e0064>
 166:	08 95       	ret

00000168 <initDevices>:
 168:	f8 94       	cli
 16a:	1c be       	out	0x3c, r1	; 60
 16c:	10 92 6d 00 	sts	0x006D, r1	; 0x80006d <__TEXT_REGION_LENGTH__+0x7e006d>
 170:	e6 df       	rcall	.-52     	; 0x13e <initPort>
 172:	15 be       	out	0x35, r1	; 53
 174:	10 92 6a 00 	sts	0x006A, r1	; 0x80006a <__TEXT_REGION_LENGTH__+0x7e006a>
 178:	1a be       	out	0x3a, r1	; 58
 17a:	19 be       	out	0x39, r1	; 57
 17c:	17 be       	out	0x37, r1	; 55
 17e:	10 92 7d 00 	sts	0x007D, r1	; 0x80007d <__TEXT_REGION_LENGTH__+0x7e007d>
 182:	78 94       	sei
 184:	08 95       	ret

00000186 <LEFTmotorOneClock>:
 186:	8f 70       	andi	r24, 0x0F	; 15
 188:	66 23       	and	r22, r22
 18a:	c9 f0       	breq	.+50     	; 0x1be <LEFTmotorOneClock+0x38>
 18c:	90 e0       	ldi	r25, 0x00	; 0
 18e:	fc 01       	movw	r30, r24
 190:	31 97       	sbiw	r30, 0x01	; 1
 192:	ec 30       	cpi	r30, 0x0C	; 12
 194:	f1 05       	cpc	r31, r1
 196:	88 f4       	brcc	.+34     	; 0x1ba <LEFTmotorOneClock+0x34>
 198:	ea 5b       	subi	r30, 0xBA	; 186
 19a:	ff 4f       	sbci	r31, 0xFF	; 255
 19c:	b8 c3       	rjmp	.+1904   	; 0x90e <__tablejump2__>
 19e:	83 e0       	ldi	r24, 0x03	; 3
 1a0:	08 95       	ret
 1a2:	82 e0       	ldi	r24, 0x02	; 2
 1a4:	08 95       	ret
 1a6:	86 e0       	ldi	r24, 0x06	; 6
 1a8:	08 95       	ret
 1aa:	84 e0       	ldi	r24, 0x04	; 4
 1ac:	08 95       	ret
 1ae:	8c e0       	ldi	r24, 0x0C	; 12
 1b0:	08 95       	ret
 1b2:	88 e0       	ldi	r24, 0x08	; 8
 1b4:	08 95       	ret
 1b6:	89 e0       	ldi	r24, 0x09	; 9
 1b8:	08 95       	ret
 1ba:	8c e0       	ldi	r24, 0x0C	; 12
 1bc:	08 95       	ret
 1be:	90 e0       	ldi	r25, 0x00	; 0
 1c0:	fc 01       	movw	r30, r24
 1c2:	31 97       	sbiw	r30, 0x01	; 1
 1c4:	ec 30       	cpi	r30, 0x0C	; 12
 1c6:	f1 05       	cpc	r31, r1
 1c8:	88 f4       	brcc	.+34     	; 0x1ec <LEFTmotorOneClock+0x66>
 1ca:	ee 5a       	subi	r30, 0xAE	; 174
 1cc:	ff 4f       	sbci	r31, 0xFF	; 255
 1ce:	9f c3       	rjmp	.+1854   	; 0x90e <__tablejump2__>
 1d0:	89 e0       	ldi	r24, 0x09	; 9
 1d2:	08 95       	ret
 1d4:	81 e0       	ldi	r24, 0x01	; 1
 1d6:	08 95       	ret
 1d8:	83 e0       	ldi	r24, 0x03	; 3
 1da:	08 95       	ret
 1dc:	82 e0       	ldi	r24, 0x02	; 2
 1de:	08 95       	ret
 1e0:	86 e0       	ldi	r24, 0x06	; 6
 1e2:	08 95       	ret
 1e4:	84 e0       	ldi	r24, 0x04	; 4
 1e6:	08 95       	ret
 1e8:	8c e0       	ldi	r24, 0x0C	; 12
 1ea:	08 95       	ret
 1ec:	8c e0       	ldi	r24, 0x0C	; 12
 1ee:	08 95       	ret
 1f0:	81 e0       	ldi	r24, 0x01	; 1
 1f2:	08 95       	ret
 1f4:	88 e0       	ldi	r24, 0x08	; 8
 1f6:	08 95       	ret

000001f8 <RIGHTmotorOneClock>:
	

unsigned char  RIGHTmotorOneClock(unsigned char step, char dir)
{    
    step = step & 0xf0;
 1f8:	80 7f       	andi	r24, 0xF0	; 240
    if(dir){
 1fa:	66 23       	and	r22, r22
 1fc:	29 f1       	breq	.+74     	; 0x248 <RIGHTmotorOneClock+0x50>
        switch(step){//후진
 1fe:	80 34       	cpi	r24, 0x40	; 64
 200:	d9 f0       	breq	.+54     	; 0x238 <RIGHTmotorOneClock+0x40>
 202:	38 f4       	brcc	.+14     	; 0x212 <RIGHTmotorOneClock+0x1a>
 204:	80 32       	cpi	r24, 0x20	; 32
 206:	a1 f0       	breq	.+40     	; 0x230 <RIGHTmotorOneClock+0x38>
 208:	80 33       	cpi	r24, 0x30	; 48
 20a:	81 f0       	breq	.+32     	; 0x22c <RIGHTmotorOneClock+0x34>
 20c:	80 31       	cpi	r24, 0x10	; 16
 20e:	d1 f4       	brne	.+52     	; 0x244 <RIGHTmotorOneClock+0x4c>
 210:	0b c0       	rjmp	.+22     	; 0x228 <RIGHTmotorOneClock+0x30>
 212:	80 38       	cpi	r24, 0x80	; 128
 214:	a9 f0       	breq	.+42     	; 0x240 <RIGHTmotorOneClock+0x48>
 216:	18 f4       	brcc	.+6      	; 0x21e <RIGHTmotorOneClock+0x26>
 218:	80 36       	cpi	r24, 0x60	; 96
 21a:	61 f0       	breq	.+24     	; 0x234 <RIGHTmotorOneClock+0x3c>
 21c:	13 c0       	rjmp	.+38     	; 0x244 <RIGHTmotorOneClock+0x4c>
 21e:	80 39       	cpi	r24, 0x90	; 144
 220:	c1 f1       	breq	.+112    	; 0x292 <RIGHTmotorOneClock+0x9a>
 222:	80 3c       	cpi	r24, 0xC0	; 192
 224:	59 f0       	breq	.+22     	; 0x23c <RIGHTmotorOneClock+0x44>
 226:	0e c0       	rjmp	.+28     	; 0x244 <RIGHTmotorOneClock+0x4c>
            case 0x90: step=0x10; break;
            case 0x10: step=0x30; break;
 228:	80 e3       	ldi	r24, 0x30	; 48
 22a:	08 95       	ret
            case 0x30: step=0x20; break;
 22c:	80 e2       	ldi	r24, 0x20	; 32
 22e:	08 95       	ret
            case 0x20: step=0x60; break;
 230:	80 e6       	ldi	r24, 0x60	; 96
 232:	08 95       	ret
            case 0x60: step=0x40; break;
 234:	80 e4       	ldi	r24, 0x40	; 64
 236:	08 95       	ret
            case 0x40: step=0xc0; break;
 238:	80 ec       	ldi	r24, 0xC0	; 192
 23a:	08 95       	ret
            case 0xc0: step=0x80; break;
 23c:	80 e8       	ldi	r24, 0x80	; 128
 23e:	08 95       	ret
            case 0x80: step=0x90; break;
 240:	80 e9       	ldi	r24, 0x90	; 144
 242:	08 95       	ret
            default: step=0xc0; break;
 244:	80 ec       	ldi	r24, 0xC0	; 192
 246:	08 95       	ret
        }
    }else{  
        switch(step){//전진
 248:	80 34       	cpi	r24, 0x40	; 64
 24a:	d9 f0       	breq	.+54     	; 0x282 <RIGHTmotorOneClock+0x8a>
 24c:	38 f4       	brcc	.+14     	; 0x25c <RIGHTmotorOneClock+0x64>
 24e:	80 32       	cpi	r24, 0x20	; 32
 250:	a1 f0       	breq	.+40     	; 0x27a <RIGHTmotorOneClock+0x82>
 252:	80 33       	cpi	r24, 0x30	; 48
 254:	81 f0       	breq	.+32     	; 0x276 <RIGHTmotorOneClock+0x7e>
 256:	80 31       	cpi	r24, 0x10	; 16
 258:	d1 f4       	brne	.+52     	; 0x28e <RIGHTmotorOneClock+0x96>
 25a:	0b c0       	rjmp	.+22     	; 0x272 <RIGHTmotorOneClock+0x7a>
 25c:	80 38       	cpi	r24, 0x80	; 128
 25e:	a9 f0       	breq	.+42     	; 0x28a <RIGHTmotorOneClock+0x92>
 260:	18 f4       	brcc	.+6      	; 0x268 <RIGHTmotorOneClock+0x70>
 262:	80 36       	cpi	r24, 0x60	; 96
 264:	61 f0       	breq	.+24     	; 0x27e <RIGHTmotorOneClock+0x86>
 266:	13 c0       	rjmp	.+38     	; 0x28e <RIGHTmotorOneClock+0x96>
 268:	80 39       	cpi	r24, 0x90	; 144
 26a:	a9 f0       	breq	.+42     	; 0x296 <RIGHTmotorOneClock+0x9e>
 26c:	80 3c       	cpi	r24, 0xC0	; 192
 26e:	59 f0       	breq	.+22     	; 0x286 <RIGHTmotorOneClock+0x8e>
 270:	0e c0       	rjmp	.+28     	; 0x28e <RIGHTmotorOneClock+0x96>
            case 0x90: step=0x80; break;//1001
            case 0x10: step=0x90; break;//0001
 272:	80 e9       	ldi	r24, 0x90	; 144
 274:	08 95       	ret
            case 0x30: step=0x10; break;//0011
 276:	80 e1       	ldi	r24, 0x10	; 16
 278:	08 95       	ret
            case 0x20: step=0x30; break;//0010
 27a:	80 e3       	ldi	r24, 0x30	; 48
 27c:	08 95       	ret
            case 0x60: step=0x20; break;//0110
 27e:	80 e2       	ldi	r24, 0x20	; 32
 280:	08 95       	ret
            case 0x40: step=0x60; break;//0100
 282:	80 e6       	ldi	r24, 0x60	; 96
 284:	08 95       	ret
            case 0xc0: step=0x40; break;//1100
 286:	80 e4       	ldi	r24, 0x40	; 64
 288:	08 95       	ret
            case 0x80: step=0xc0; break;//1000
 28a:	80 ec       	ldi	r24, 0xC0	; 192
 28c:	08 95       	ret
            default: step=0xc0; break;
 28e:	80 ec       	ldi	r24, 0xC0	; 192
 290:	08 95       	ret
unsigned char  RIGHTmotorOneClock(unsigned char step, char dir)
{    
    step = step & 0xf0;
    if(dir){
        switch(step){//후진
            case 0x90: step=0x10; break;
 292:	80 e1       	ldi	r24, 0x10	; 16
 294:	08 95       	ret
            case 0x80: step=0x90; break;
            default: step=0xc0; break;
        }
    }else{  
        switch(step){//전진
            case 0x90: step=0x80; break;//1001
 296:	80 e8       	ldi	r24, 0x80	; 128
            case 0x80: step=0xc0; break;//1000
            default: step=0xc0; break;
        }
    }
    return step;
}
 298:	08 95       	ret

0000029a <printSeg>:
void printSeg(int segNum, int segDigit){
    //by schematic, PORTE must being clear before set segment's digit and led.
    //because circuit use same port(A) to set segment's digit and led by latch.

    //set segment digit to print
    PORTA = FND_SEGPOS[segDigit];
 29a:	fb 01       	movw	r30, r22
 29c:	e4 5f       	subi	r30, 0xF4	; 244
 29e:	fe 4f       	sbci	r31, 0xFE	; 254
 2a0:	20 81       	ld	r18, Z
 2a2:	2b bb       	out	0x1b, r18	; 27
    PORTE |= 0x04; //set 1 segment digit latch
 2a4:	1a 9a       	sbi	0x03, 2	; 3
    PORTE &= ~(0x04); //clear LED_CTL(PE2)
 2a6:	1a 98       	cbi	0x03, 2	; 3

    //print num at segment
    PORTA = FND_SEGNP[segNum]; //print with out decimal point
 2a8:	80 5f       	subi	r24, 0xF0	; 240
 2aa:	9e 4f       	sbci	r25, 0xFE	; 254
 2ac:	fc 01       	movw	r30, r24
 2ae:	80 81       	ld	r24, Z
 2b0:	8b bb       	out	0x1b, r24	; 27
    PORTE |= 0x08; //set 1 segment led latch
 2b2:	1b 9a       	sbi	0x03, 3	; 3
    PORTE &= ~(0x08); //clear LED_DATA(PE3)
 2b4:	1b 98       	cbi	0x03, 3	; 3
 2b6:	08 95       	ret

000002b8 <initSegment>:
}

void initSegment(){
    //initialize port A and E
    DDRA = 0xFF;    //set portA(7:0) to output
 2b8:	8f ef       	ldi	r24, 0xFF	; 255
 2ba:	8a bb       	out	0x1a, r24	; 26
    DDRE |= 0x0C;   //set portE(3:2) to output
 2bc:	82 b1       	in	r24, 0x02	; 2
 2be:	8c 60       	ori	r24, 0x0C	; 12
 2c0:	82 b9       	out	0x02, r24	; 2
    PORTE |= 0x04;  //init portE(3)
 2c2:	1a 9a       	sbi	0x03, 2	; 3
    PORTA = 0x0F;   //init portA(3:0)
 2c4:	8f e0       	ldi	r24, 0x0F	; 15
 2c6:	8b bb       	out	0x1b, r24	; 27
 2c8:	08 95       	ret

000002ca <initInterrupt>:
}

void initInterrupt(){
        //external interrupt int4 enable
        //int4 pin falling edge활성화
        EICRB &= ~(1 << ISC40);
 2ca:	8a b7       	in	r24, 0x3a	; 58
 2cc:	8e 7f       	andi	r24, 0xFE	; 254
 2ce:	8a bf       	out	0x3a, r24	; 58
        EICRB |= 1 << ISC41; //same to EICRB = 0d00000010
 2d0:	8a b7       	in	r24, 0x3a	; 58
 2d2:	82 60       	ori	r24, 0x02	; 2
 2d4:	8a bf       	out	0x3a, r24	; 58
        //enable external interrupt 4
        EIMSK |= 1 << INT4;
 2d6:	89 b7       	in	r24, 0x39	; 57
 2d8:	80 61       	ori	r24, 0x10	; 16
 2da:	89 bf       	out	0x39, r24	; 57

        //external interrupt int5 enable
        //int5 pin falling edge활성화
        EICRB &= ~(1 << ISC50); //clear
 2dc:	8a b7       	in	r24, 0x3a	; 58
 2de:	8b 7f       	andi	r24, 0xFB	; 251
 2e0:	8a bf       	out	0x3a, r24	; 58
        EICRB |= 1 << ISC51;    //set
 2e2:	8a b7       	in	r24, 0x3a	; 58
 2e4:	88 60       	ori	r24, 0x08	; 8
 2e6:	8a bf       	out	0x3a, r24	; 58
        //enable external interrupt 5
        EIMSK |= 1 << INT5;
 2e8:	89 b7       	in	r24, 0x39	; 57
 2ea:	80 62       	ori	r24, 0x20	; 32
 2ec:	89 bf       	out	0x39, r24	; 57
 2ee:	08 95       	ret

000002f0 <initTimerInterrupt>:
}

void initTimerInterrupt()
{
    TCCR0 = 0x0d; //0d00001110//CTC mode and 64 prescaling
 2f0:	8d e0       	ldi	r24, 0x0D	; 13
 2f2:	83 bf       	out	0x33, r24	; 51
    TCNT0 = 0x00; //clear count value register. TCNT0 increase count from 0, clear on 63
 2f4:	12 be       	out	0x32, r1	; 50
    TIMSK = 0x02; //enable Timer/Counter0 compare match interrupt, disable overflow interrupt
 2f6:	82 e0       	ldi	r24, 0x02	; 2
 2f8:	87 bf       	out	0x37, r24	; 55
    TIFR = 0xff;  //write logic 1 on flag for clear register
 2fa:	8f ef       	ldi	r24, 0xFF	; 255
 2fc:	86 bf       	out	0x36, r24	; 54
    OCR0 = 0x6d;  //compare 110
 2fe:	8d e6       	ldi	r24, 0x6D	; 109
 300:	81 bf       	out	0x31, r24	; 49
 302:	08 95       	ret

00000304 <motor>:
	    case LEFT  :
	    stepRight = RIGHTmotorOneClock1Sang(stepRight, 1);
	    break;
    }
	*/
	switch(direction){
 304:	81 30       	cpi	r24, 0x01	; 1
 306:	51 f0       	breq	.+20     	; 0x31c <motor+0x18>
 308:	18 f0       	brcs	.+6      	; 0x310 <motor+0xc>
 30a:	82 30       	cpi	r24, 0x02	; 2
 30c:	71 f0       	breq	.+28     	; 0x32a <motor+0x26>
 30e:	13 c0       	rjmp	.+38     	; 0x336 <motor+0x32>
        case STRAIGHT : 
            stepRight = RIGHTmotorOneClock(stepRight, 1);  //break 없으니까 밑에꺼도 실행됨
 310:	80 91 02 01 	lds	r24, 0x0102	; 0x800102 <stepRight>
 314:	61 e0       	ldi	r22, 0x01	; 1
 316:	70 df       	rcall	.-288    	; 0x1f8 <RIGHTmotorOneClock>
 318:	80 93 02 01 	sts	0x0102, r24	; 0x800102 <stepRight>
        case RIGHT : 
            stepLeft = LEFTmotorOneClock(stepLeft, 0);
 31c:	80 91 03 01 	lds	r24, 0x0103	; 0x800103 <stepLeft>
 320:	60 e0       	ldi	r22, 0x00	; 0
 322:	31 df       	rcall	.-414    	; 0x186 <LEFTmotorOneClock>
 324:	80 93 03 01 	sts	0x0103, r24	; 0x800103 <stepLeft>
            break;
 328:	06 c0       	rjmp	.+12     	; 0x336 <motor+0x32>
        case LEFT  : 
            stepRight = RIGHTmotorOneClock(stepRight, 1);
 32a:	80 91 02 01 	lds	r24, 0x0102	; 0x800102 <stepRight>
 32e:	61 e0       	ldi	r22, 0x01	; 1
 330:	63 df       	rcall	.-314    	; 0x1f8 <RIGHTmotorOneClock>
 332:	80 93 02 01 	sts	0x0102, r24	; 0x800102 <stepRight>
            break;
    }
	
    MOTOR_PORT = stepLeft|stepRight;
 336:	90 91 03 01 	lds	r25, 0x0103	; 0x800103 <stepLeft>
 33a:	80 91 02 01 	lds	r24, 0x0102	; 0x800102 <stepRight>
 33e:	89 2b       	or	r24, r25
 340:	82 bb       	out	0x12, r24	; 18
 342:	08 95       	ret

00000344 <__vector_6>:
}

//출발
ISR(INT5_vect){
 344:	1f 92       	push	r1
 346:	0f 92       	push	r0
 348:	0f b6       	in	r0, 0x3f	; 63
 34a:	0f 92       	push	r0
 34c:	11 24       	eor	r1, r1
 34e:	8f 93       	push	r24
 350:	9f 93       	push	r25
    state = STATE_RUNNING;
 352:	81 e0       	ldi	r24, 0x01	; 1
 354:	90 e0       	ldi	r25, 0x00	; 0
 356:	90 93 2b 01 	sts	0x012B, r25	; 0x80012b <state+0x1>
 35a:	80 93 2a 01 	sts	0x012A, r24	; 0x80012a <state>
}
 35e:	9f 91       	pop	r25
 360:	8f 91       	pop	r24
 362:	0f 90       	pop	r0
 364:	0f be       	out	0x3f, r0	; 63
 366:	0f 90       	pop	r0
 368:	1f 90       	pop	r1
 36a:	18 95       	reti

0000036c <__vector_5>:

//속도조절

ISR(INT4_vect){
 36c:	1f 92       	push	r1
 36e:	0f 92       	push	r0
 370:	0f b6       	in	r0, 0x3f	; 63
 372:	0f 92       	push	r0
 374:	11 24       	eor	r1, r1
 376:	8f 93       	push	r24
 378:	9f 93       	push	r25
    //when interrupt 4 excu, increase num
     
    if(timeNum > 70){
 37a:	80 91 1a 01 	lds	r24, 0x011A	; 0x80011a <timeNum>
 37e:	90 91 1b 01 	lds	r25, 0x011B	; 0x80011b <timeNum+0x1>
 382:	87 34       	cpi	r24, 0x47	; 71
 384:	91 05       	cpc	r25, r1
 386:	30 f0       	brcs	.+12     	; 0x394 <__vector_5+0x28>
        timeNum -= 5;
 388:	05 97       	sbiw	r24, 0x05	; 5
 38a:	90 93 1b 01 	sts	0x011B, r25	; 0x80011b <timeNum+0x1>
 38e:	80 93 1a 01 	sts	0x011A, r24	; 0x80011a <timeNum>
 392:	05 c0       	rjmp	.+10     	; 0x39e <__vector_5+0x32>
    }else{
        timeNum -= 2;
 394:	02 97       	sbiw	r24, 0x02	; 2
 396:	90 93 1b 01 	sts	0x011B, r25	; 0x80011b <timeNum+0x1>
 39a:	80 93 1a 01 	sts	0x011A, r24	; 0x80011a <timeNum>
    }
    if (timeNum < 40){
 39e:	80 91 1a 01 	lds	r24, 0x011A	; 0x80011a <timeNum>
 3a2:	90 91 1b 01 	lds	r25, 0x011B	; 0x80011b <timeNum+0x1>
 3a6:	88 32       	cpi	r24, 0x28	; 40
 3a8:	91 05       	cpc	r25, r1
 3aa:	98 f4       	brcc	.+38     	; 0x3d2 <__vector_5+0x66>
        OCR0 = timeNum = 110;
 3ac:	8e e6       	ldi	r24, 0x6E	; 110
 3ae:	90 e0       	ldi	r25, 0x00	; 0
 3b0:	90 93 1b 01 	sts	0x011B, r25	; 0x80011b <timeNum+0x1>
 3b4:	80 93 1a 01 	sts	0x011A, r24	; 0x80011a <timeNum>
 3b8:	81 bf       	out	0x31, r24	; 49
    }
    if(timeNum < 100){
 3ba:	80 91 1a 01 	lds	r24, 0x011A	; 0x80011a <timeNum>
 3be:	90 91 1b 01 	lds	r25, 0x011B	; 0x80011b <timeNum+0x1>
 3c2:	84 36       	cpi	r24, 0x64	; 100
 3c4:	91 05       	cpc	r25, r1
 3c6:	18 f4       	brcc	.+6      	; 0x3ce <__vector_5+0x62>
        OCR0 = 100;
 3c8:	84 e6       	ldi	r24, 0x64	; 100
 3ca:	81 bf       	out	0x31, r24	; 49
 3cc:	06 c0       	rjmp	.+12     	; 0x3da <__vector_5+0x6e>
    }else if(timeNum >=100){
        OCR0 = timeNum;
 3ce:	81 bf       	out	0x31, r24	; 49
    }
		
}
 3d0:	04 c0       	rjmp	.+8      	; 0x3da <__vector_5+0x6e>
        timeNum -= 2;
    }
    if (timeNum < 40){
        OCR0 = timeNum = 110;
    }
    if(timeNum < 100){
 3d2:	84 36       	cpi	r24, 0x64	; 100
 3d4:	91 05       	cpc	r25, r1
 3d6:	d8 f7       	brcc	.-10     	; 0x3ce <__vector_5+0x62>
 3d8:	f7 cf       	rjmp	.-18     	; 0x3c8 <__vector_5+0x5c>
        OCR0 = 100;
    }else if(timeNum >=100){
        OCR0 = timeNum;
    }
		
}
 3da:	9f 91       	pop	r25
 3dc:	8f 91       	pop	r24
 3de:	0f 90       	pop	r0
 3e0:	0f be       	out	0x3f, r0	; 63
 3e2:	0f 90       	pop	r0
 3e4:	1f 90       	pop	r1
 3e6:	18 95       	reti

000003e8 <sensorScan>:

char rightSmoth = 0;
char leftSmoth = 0;

void sensorScan(int sensor){
    switch(sensor){
 3e8:	80 31       	cpi	r24, 0x10	; 16
 3ea:	91 05       	cpc	r25, r1
 3ec:	08 f0       	brcs	.+2      	; 0x3f0 <sensorScan+0x8>
 3ee:	98 c0       	rjmp	.+304    	; 0x520 <__LOCK_REGION_LENGTH__+0x120>
 3f0:	fc 01       	movw	r30, r24
 3f2:	e2 5a       	subi	r30, 0xA2	; 162
 3f4:	ff 4f       	sbci	r31, 0xFF	; 255
 3f6:	8b c2       	rjmp	.+1302   	; 0x90e <__tablejump2__>
        case 0x0f:{                      //1111 - 걸리는거없음 직진
            //정지신호 있을때
            if(stopSign==1){            // stop sign(0110)이 있은뒤 사라지면 카운트
 3f8:	80 91 26 01 	lds	r24, 0x0126	; 0x800126 <stopSign>
 3fc:	81 30       	cpi	r24, 0x01	; 1
 3fe:	b9 f4       	brne	.+46     	; 0x42e <__LOCK_REGION_LENGTH__+0x2e>
                forceRightSign = forceLeftSign = 0; //정지신호가 양쪽 조금씩 다르게 들어간경우 예외처리
 400:	10 92 24 01 	sts	0x0124, r1	; 0x800124 <forceLeftSign>
 404:	10 92 25 01 	sts	0x0125, r1	; 0x800125 <forceRightSign>
                stopSign=0;
 408:	10 92 26 01 	sts	0x0126, r1	; 0x800126 <stopSign>
                countStopSign++;
 40c:	80 91 27 01 	lds	r24, 0x0127	; 0x800127 <countStopSign>
 410:	8f 5f       	subi	r24, 0xFF	; 255
 412:	80 93 27 01 	sts	0x0127, r24	; 0x800127 <countStopSign>
				countTimeStop = 0;
 416:	10 92 01 01 	sts	0x0101, r1	; 0x800101 <__data_start+0x1>
 41a:	10 92 00 01 	sts	0x0100, r1	; 0x800100 <__data_start>
				if (countTimeStop == 300){
					countStopSign = 0;
				}

				if((countTimeStop < 300)&&(countStopSign > 2)){    //stopsign 3번 나오면 종료
 41e:	83 30       	cpi	r24, 0x03	; 3
 420:	d8 f0       	brcs	.+54     	; 0x458 <__LOCK_REGION_LENGTH__+0x58>
					state = STATE_INIT;
 422:	10 92 2b 01 	sts	0x012B, r1	; 0x80012b <state+0x1>
 426:	10 92 2a 01 	sts	0x012A, r1	; 0x80012a <state>
					initFlag();
 42a:	76 ce       	rjmp	.-788    	; 0x118 <initFlag>
					return;
 42c:	08 95       	ret
				}
            }else if(forceRightSign){
 42e:	80 91 25 01 	lds	r24, 0x0125	; 0x800125 <forceRightSign>
 432:	88 23       	and	r24, r24
 434:	39 f0       	breq	.+14     	; 0x444 <__LOCK_REGION_LENGTH__+0x44>
                state=STATE_FORCE_RIGHT;
 436:	82 e0       	ldi	r24, 0x02	; 2
 438:	90 e0       	ldi	r25, 0x00	; 0
 43a:	90 93 2b 01 	sts	0x012B, r25	; 0x80012b <state+0x1>
 43e:	80 93 2a 01 	sts	0x012A, r24	; 0x80012a <state>
 442:	0a c0       	rjmp	.+20     	; 0x458 <__LOCK_REGION_LENGTH__+0x58>
            }else if(forceLeftSign){
 444:	80 91 24 01 	lds	r24, 0x0124	; 0x800124 <forceLeftSign>
 448:	88 23       	and	r24, r24
 44a:	31 f0       	breq	.+12     	; 0x458 <__LOCK_REGION_LENGTH__+0x58>
                state=STATE_FORCE_LEFT;
 44c:	83 e0       	ldi	r24, 0x03	; 3
 44e:	90 e0       	ldi	r25, 0x00	; 0
 450:	90 93 2b 01 	sts	0x012B, r25	; 0x80012b <state+0x1>
 454:	80 93 2a 01 	sts	0x012A, r24	; 0x80012a <state>
            }
            motor(STRAIGHT);   //직진!
 458:	80 e0       	ldi	r24, 0x00	; 0
 45a:	54 cf       	rjmp	.-344    	; 0x304 <motor>
            break;
 45c:	08 95       	ret
        }
        case 0x0b:{                      //1011 -- 하나걸림 좌회전
            if(leftSmoth == 1){
 45e:	80 91 20 01 	lds	r24, 0x0120	; 0x800120 <leftSmoth>
 462:	81 30       	cpi	r24, 0x01	; 1
	            motor(STRAIGHT);
 464:	29 f4       	brne	.+10     	; 0x470 <__LOCK_REGION_LENGTH__+0x70>
 466:	80 e0       	ldi	r24, 0x00	; 0
 468:	4d df       	rcall	.-358    	; 0x304 <motor>
	            leftSmoth=0;
 46a:	10 92 20 01 	sts	0x0120, r1	; 0x800120 <leftSmoth>
 46e:	08 95       	ret
	        }else{
	            leftSmoth++;
 470:	8f 5f       	subi	r24, 0xFF	; 255
 472:	80 93 20 01 	sts	0x0120, r24	; 0x800120 <leftSmoth>
				motor(LEFT);
 476:	82 e0       	ldi	r24, 0x02	; 2
 478:	45 cf       	rjmp	.-374    	; 0x304 <motor>
 47a:	08 95       	ret
            }
			
            break;
        }
        case 0x0d:{                      //1101 -- 하나걸림 -우회전
            if(rightSmoth == 1){
 47c:	80 91 21 01 	lds	r24, 0x0121	; 0x800121 <rightSmoth>
 480:	81 30       	cpi	r24, 0x01	; 1
	            motor(STRAIGHT);
 482:	29 f4       	brne	.+10     	; 0x48e <__LOCK_REGION_LENGTH__+0x8e>
 484:	80 e0       	ldi	r24, 0x00	; 0
 486:	3e df       	rcall	.-388    	; 0x304 <motor>
	            rightSmoth=0;
 488:	10 92 21 01 	sts	0x0121, r1	; 0x800121 <rightSmoth>
	         }else{
	            rightSmoth++;
 48c:	08 95       	ret
 48e:	8f 5f       	subi	r24, 0xFF	; 255
 490:	80 93 21 01 	sts	0x0121, r24	; 0x800121 <rightSmoth>
				motor(RIGHT);
 494:	81 e0       	ldi	r24, 0x01	; 1
 496:	36 cf       	rjmp	.-404    	; 0x304 <motor>
			
            break;
        }
		case 0x05:
        case 0x07:{                      //0111 -- 교차로 좌회전 신호
            forceLeftSign = 1;
 498:	08 95       	ret
 49a:	81 e0       	ldi	r24, 0x01	; 1
 49c:	80 93 24 01 	sts	0x0124, r24	; 0x800124 <forceLeftSign>
            motor(STRAIGHT);
 4a0:	80 e0       	ldi	r24, 0x00	; 0
            break;
 4a2:	30 cf       	rjmp	.-416    	; 0x304 <motor>
        }
		case 0x0a:
        case 0x0e:{                      //1110 -- 교차로 우회전 신호
            
            forceRightSign = 1;
 4a4:	08 95       	ret
 4a6:	81 e0       	ldi	r24, 0x01	; 1
            motor(STRAIGHT);
 4a8:	80 93 25 01 	sts	0x0125, r24	; 0x800125 <forceRightSign>
 4ac:	80 e0       	ldi	r24, 0x00	; 0
            break;		
 4ae:	2a cf       	rjmp	.-428    	; 0x304 <motor>
        }
		case 0x02://0010
		case 0x04://0100
        case 0x06:{                      //0110 -- 정지 신호
            
            stopSign=1;                    //flag 설정
 4b0:	08 95       	ret
 4b2:	81 e0       	ldi	r24, 0x01	; 1
 4b4:	80 93 26 01 	sts	0x0126, r24	; 0x800126 <stopSign>
            motor(STRAIGHT);
 4b8:	80 e0       	ldi	r24, 0x00	; 0
 4ba:	24 cf       	rjmp	.-440    	; 0x304 <motor>
            break;
 4bc:	08 95       	ret
        }
        case 0x01:{                        //0001 - 교차로로 치우쳐 들어감
            if(calibRight == 1){                //교차로 1000으로 들어와서 0001로 나온경우엔 오른쪽으로칼리브레이션을 해줘야 합니다.
 4be:	80 91 22 01 	lds	r24, 0x0122	; 0x800122 <calibRight>
 4c2:	81 30       	cpi	r24, 0x01	; 1
 4c4:	49 f4       	brne	.+18     	; 0x4d8 <__LOCK_REGION_LENGTH__+0xd8>
                state = STATE_CALIB_RIGHT;
 4c6:	84 e0       	ldi	r24, 0x04	; 4
 4c8:	90 e0       	ldi	r25, 0x00	; 0
 4ca:	90 93 2b 01 	sts	0x012B, r25	; 0x80012b <state+0x1>
 4ce:	80 93 2a 01 	sts	0x012A, r24	; 0x80012a <state>
                calibRight = 0;//스테이트 바꿨으면 초기화하기
 4d2:	10 92 22 01 	sts	0x0122, r1	; 0x800122 <calibRight>
                return;
            }else{
                calibLeft = 1;
 4d6:	08 95       	ret
 4d8:	81 e0       	ldi	r24, 0x01	; 1
 4da:	80 93 23 01 	sts	0x0123, r24	; 0x800123 <calibLeft>
            }
            motor(STRAIGHT);
 4de:	80 e0       	ldi	r24, 0x00	; 0
 4e0:	11 cf       	rjmp	.-478    	; 0x304 <motor>
            break;
 4e2:	08 95       	ret
        }
        case 0x08:{                        //1000    - 교차로로 치우쳐 들어감
            if(calibLeft == 1){                //교차로 0001으로 들어와서 1000로 나온경우 왼쪽으로칼리브레이션을 해줘야 합니다.
 4e4:	80 91 23 01 	lds	r24, 0x0123	; 0x800123 <calibLeft>
 4e8:	81 30       	cpi	r24, 0x01	; 1
 4ea:	49 f4       	brne	.+18     	; 0x4fe <__LOCK_REGION_LENGTH__+0xfe>
                state = STATE_CALIB_LEFT;
 4ec:	85 e0       	ldi	r24, 0x05	; 5
 4ee:	90 e0       	ldi	r25, 0x00	; 0
 4f0:	90 93 2b 01 	sts	0x012B, r25	; 0x80012b <state+0x1>
 4f4:	80 93 2a 01 	sts	0x012A, r24	; 0x80012a <state>
                calibLeft = 0;//스테이트 바꿨으면 초기화하기
 4f8:	10 92 23 01 	sts	0x0123, r1	; 0x800123 <calibLeft>
                return;
            }else{
                calibRight = 1;
 4fc:	08 95       	ret
 4fe:	81 e0       	ldi	r24, 0x01	; 1
 500:	80 93 22 01 	sts	0x0122, r24	; 0x800122 <calibRight>
            }
            motor(STRAIGHT);
 504:	80 e0       	ldi	r24, 0x00	; 0
            break;
 506:	fe ce       	rjmp	.-516    	; 0x304 <motor>
        }
        case 0x00:{                      //0000 - 교차로
            forceLeftSign = forceRightSign = stopSign= countStopSign = 0;                //교차로에 많이 치우쳐 들어온경우(0111이 인식된뒤 들어온)교차로 를 나간뒤 STATE_FORCE로 들어가지 않게 초기화 해줘야 합니다.
 508:	08 95       	ret
 50a:	10 92 27 01 	sts	0x0127, r1	; 0x800127 <countStopSign>
 50e:	10 92 26 01 	sts	0x0126, r1	; 0x800126 <stopSign>
 512:	10 92 25 01 	sts	0x0125, r1	; 0x800125 <forceRightSign>
            motor(STRAIGHT);
 516:	10 92 24 01 	sts	0x0124, r1	; 0x800124 <forceLeftSign>
 51a:	80 e0       	ldi	r24, 0x00	; 0
            break;
 51c:	f3 ce       	rjmp	.-538    	; 0x304 <motor>
        }
        default: {   
            motor(STRAIGHT);
 51e:	08 95       	ret
 520:	80 e0       	ldi	r24, 0x00	; 0
 522:	f0 ce       	rjmp	.-544    	; 0x304 <motor>
 524:	08 95       	ret

00000526 <__vector_15>:
}
char smothStart=0;
char stateForceSmoth = 0;
short forceStraight = 0;
ISR(TIMER0_COMP_vect)  //OCR0와 카운터 비교해서 실행됨. 즉 모터의 펄스 간격(속도)가 ocr0에 따라 가변
{
 526:	1f 92       	push	r1
 528:	0f 92       	push	r0
 52a:	0f b6       	in	r0, 0x3f	; 63
 52c:	0f 92       	push	r0
 52e:	11 24       	eor	r1, r1
 530:	0b b6       	in	r0, 0x3b	; 59
 532:	0f 92       	push	r0
 534:	2f 93       	push	r18
 536:	3f 93       	push	r19
 538:	4f 93       	push	r20
 53a:	5f 93       	push	r21
 53c:	6f 93       	push	r22
 53e:	7f 93       	push	r23
 540:	8f 93       	push	r24
 542:	9f 93       	push	r25
 544:	af 93       	push	r26
 546:	bf 93       	push	r27
 548:	cf 93       	push	r28
 54a:	df 93       	push	r29
 54c:	ef 93       	push	r30
 54e:	ff 93       	push	r31
    int sensor = SENSOR_PORT & 0x0F; //센서값 읽기
 550:	83 b3       	in	r24, 0x13	; 19
 552:	8f 70       	andi	r24, 0x0F	; 15
 554:	c8 2f       	mov	r28, r24
 556:	d0 e0       	ldi	r29, 0x00	; 0
	
	if(countTimeStop < 1000){
 558:	20 91 00 01 	lds	r18, 0x0100	; 0x800100 <__data_start>
 55c:	30 91 01 01 	lds	r19, 0x0101	; 0x800101 <__data_start+0x1>
 560:	28 3e       	cpi	r18, 0xE8	; 232
 562:	93 e0       	ldi	r25, 0x03	; 3
 564:	39 07       	cpc	r19, r25
 566:	34 f4       	brge	.+12     	; 0x574 <__vector_15+0x4e>
		countTimeStop++;
 568:	2f 5f       	subi	r18, 0xFF	; 255
 56a:	3f 4f       	sbci	r19, 0xFF	; 255
 56c:	30 93 01 01 	sts	0x0101, r19	; 0x800101 <__data_start+0x1>
 570:	20 93 00 01 	sts	0x0100, r18	; 0x800100 <__data_start>
	}
	
	
    if(state == STATE_FORCE_RIGHT){                                 //-강제회전
 574:	20 91 2a 01 	lds	r18, 0x012A	; 0x80012a <state>
 578:	30 91 2b 01 	lds	r19, 0x012B	; 0x80012b <state+0x1>
 57c:	22 30       	cpi	r18, 0x02	; 2
 57e:	31 05       	cpc	r19, r1
 580:	09 f0       	breq	.+2      	; 0x584 <__vector_15+0x5e>
 582:	82 c0       	rjmp	.+260    	; 0x688 <__vector_15+0x162>
		if(80 != OCR0&&(smothStart==10)){
 584:	91 b7       	in	r25, 0x31	; 49
 586:	90 35       	cpi	r25, 0x50	; 80
 588:	51 f0       	breq	.+20     	; 0x59e <__vector_15+0x78>
 58a:	90 91 1f 01 	lds	r25, 0x011F	; 0x80011f <smothStart>
 58e:	9a 30       	cpi	r25, 0x0A	; 10
 590:	31 f4       	brne	.+12     	; 0x59e <__vector_15+0x78>
			OCR0++;
 592:	91 b7       	in	r25, 0x31	; 49
 594:	9f 5f       	subi	r25, 0xFF	; 255
 596:	91 bf       	out	0x31, r25	; 49
			smothStart=0;
 598:	10 92 1f 01 	sts	0x011F, r1	; 0x80011f <smothStart>
 59c:	05 c0       	rjmp	.+10     	; 0x5a8 <__vector_15+0x82>
			
			}else{
			smothStart++;
 59e:	90 91 1f 01 	lds	r25, 0x011F	; 0x80011f <smothStart>
 5a2:	9f 5f       	subi	r25, 0xFF	; 255
 5a4:	90 93 1f 01 	sts	0x011F, r25	; 0x80011f <smothStart>
		}
        if(!forceRightSign){
 5a8:	90 91 25 01 	lds	r25, 0x0125	; 0x800125 <forceRightSign>
 5ac:	91 11       	cpse	r25, r1
 5ae:	29 c0       	rjmp	.+82     	; 0x602 <__vector_15+0xdc>
            if(stateForceSmoth==3){
 5b0:	80 91 1e 01 	lds	r24, 0x011E	; 0x80011e <stateForceSmoth>
 5b4:	83 30       	cpi	r24, 0x03	; 3
 5b6:	29 f4       	brne	.+10     	; 0x5c2 <__vector_15+0x9c>
				motor(STRAIGHT); 
 5b8:	80 e0       	ldi	r24, 0x00	; 0
 5ba:	a4 de       	rcall	.-696    	; 0x304 <motor>
				stateForceSmoth=0;
 5bc:	10 92 1e 01 	sts	0x011E, r1	; 0x80011e <stateForceSmoth>
 5c0:	05 c0       	rjmp	.+10     	; 0x5cc <__vector_15+0xa6>
			}else{
				stateForceSmoth++;
 5c2:	8f 5f       	subi	r24, 0xFF	; 255
 5c4:	80 93 1e 01 	sts	0x011E, r24	; 0x80011e <stateForceSmoth>
				motor(RIGHT); 
 5c8:	81 e0       	ldi	r24, 0x01	; 1
 5ca:	9c de       	rcall	.-712    	; 0x304 <motor>
			}
			forceStraight++;                                          //교차로에 들어간 뒤엔 회전만 합니다
 5cc:	80 91 1c 01 	lds	r24, 0x011C	; 0x80011c <__data_end>
 5d0:	90 91 1d 01 	lds	r25, 0x011D	; 0x80011d <__data_end+0x1>
 5d4:	01 96       	adiw	r24, 0x01	; 1
 5d6:	90 93 1d 01 	sts	0x011D, r25	; 0x80011d <__data_end+0x1>
 5da:	80 93 1c 01 	sts	0x011C, r24	; 0x80011c <__data_end>
            if((forceStraight>320)&&(sensor == 0x0d)){
 5de:	81 34       	cpi	r24, 0x41	; 65
 5e0:	91 40       	sbci	r25, 0x01	; 1
 5e2:	0c f4       	brge	.+2      	; 0x5e6 <__vector_15+0xc0>
 5e4:	24 c1       	rjmp	.+584    	; 0x82e <__vector_15+0x308>
 5e6:	2d 97       	sbiw	r28, 0x0d	; 13
 5e8:	09 f0       	breq	.+2      	; 0x5ec <__vector_15+0xc6>
 5ea:	21 c1       	rjmp	.+578    	; 0x82e <__vector_15+0x308>
                state = STATE_RUNNING;   
 5ec:	81 e0       	ldi	r24, 0x01	; 1
 5ee:	90 e0       	ldi	r25, 0x00	; 0
 5f0:	90 93 2b 01 	sts	0x012B, r25	; 0x80012b <state+0x1>
 5f4:	80 93 2a 01 	sts	0x012A, r24	; 0x80012a <state>
				forceStraight=0;                           //강제 회전하다 라인이 잡히면 트랙 타기
 5f8:	10 92 1d 01 	sts	0x011D, r1	; 0x80011d <__data_end+0x1>
 5fc:	10 92 1c 01 	sts	0x011C, r1	; 0x80011c <__data_end>
 600:	16 c1       	rjmp	.+556    	; 0x82e <__vector_15+0x308>
            }
        }else{
            if(timeNum<100&&(forceStraight<300)){
 602:	20 91 1a 01 	lds	r18, 0x011A	; 0x80011a <timeNum>
 606:	30 91 1b 01 	lds	r19, 0x011B	; 0x80011b <timeNum+0x1>
 60a:	24 36       	cpi	r18, 0x64	; 100
 60c:	31 05       	cpc	r19, r1
 60e:	00 f5       	brcc	.+64     	; 0x650 <__vector_15+0x12a>
 610:	20 91 1c 01 	lds	r18, 0x011C	; 0x80011c <__data_end>
 614:	30 91 1d 01 	lds	r19, 0x011D	; 0x80011d <__data_end+0x1>
 618:	2c 32       	cpi	r18, 0x2C	; 44
 61a:	31 40       	sbci	r19, 0x01	; 1
	            motor(STRAIGHT);
 61c:	cc f4       	brge	.+50     	; 0x650 <__vector_15+0x12a>
 61e:	80 e0       	ldi	r24, 0x00	; 0
 620:	71 de       	rcall	.-798    	; 0x304 <motor>
	            forceStraight++;
 622:	20 91 1c 01 	lds	r18, 0x011C	; 0x80011c <__data_end>
 626:	30 91 1d 01 	lds	r19, 0x011D	; 0x80011d <__data_end+0x1>
 62a:	c9 01       	movw	r24, r18
 62c:	01 96       	adiw	r24, 0x01	; 1
 62e:	90 93 1d 01 	sts	0x011D, r25	; 0x80011d <__data_end+0x1>
 632:	80 93 1c 01 	sts	0x011C, r24	; 0x80011c <__data_end>
				if(forceStraight==240){
 636:	80 3f       	cpi	r24, 0xF0	; 240
 638:	91 05       	cpc	r25, r1
 63a:	09 f0       	breq	.+2      	; 0x63e <__vector_15+0x118>
 63c:	f8 c0       	rjmp	.+496    	; 0x82e <__vector_15+0x308>
					forceRightSign = 0;
 63e:	10 92 25 01 	sts	0x0125, r1	; 0x800125 <forceRightSign>
					forceStraight++;
 642:	2e 5f       	subi	r18, 0xFE	; 254
 644:	3f 4f       	sbci	r19, 0xFF	; 255
 646:	30 93 1d 01 	sts	0x011D, r19	; 0x80011d <__data_end+0x1>
 64a:	20 93 1c 01 	sts	0x011C, r18	; 0x80011c <__data_end>
 64e:	ef c0       	rjmp	.+478    	; 0x82e <__vector_15+0x308>
				}
            }else if(sensor == 0x00 || sensor == 0x01 || sensor == 0x08){    
 650:	82 30       	cpi	r24, 0x02	; 2
 652:	10 f0       	brcs	.+4      	; 0x658 <__vector_15+0x132>
 654:	28 97       	sbiw	r28, 0x08	; 8
 656:	29 f4       	brne	.+10     	; 0x662 <__vector_15+0x13c>
                forceRightSign = 0;  
 658:	10 92 25 01 	sts	0x0125, r1	; 0x800125 <forceRightSign>
				motor(RIGHT);                               //교차로 나타나면 플래그 초기화 하고 강제로 돌림
 65c:	81 e0       	ldi	r24, 0x01	; 1
 65e:	52 de       	rcall	.-860    	; 0x304 <motor>
 660:	e6 c0       	rjmp	.+460    	; 0x82e <__vector_15+0x308>
            }else{
				switch(sensor){
 662:	8d 30       	cpi	r24, 0x0D	; 13
 664:	59 f0       	breq	.+22     	; 0x67c <__vector_15+0x156>
 666:	8f 30       	cpi	r24, 0x0F	; 15
 668:	19 f0       	breq	.+6      	; 0x670 <__vector_15+0x14a>
 66a:	8b 30       	cpi	r24, 0x0B	; 11
 66c:	51 f4       	brne	.+20     	; 0x682 <__vector_15+0x15c>
					case 0x0f: 
						motor(STRAIGHT);
 66e:	03 c0       	rjmp	.+6      	; 0x676 <__vector_15+0x150>
 670:	80 e0       	ldi	r24, 0x00	; 0
						break;
					case 0x0b:{                      //1011 -- 하나걸림 좌회전
						motor(LEFT);
 672:	48 de       	rcall	.-880    	; 0x304 <motor>
 674:	dc c0       	rjmp	.+440    	; 0x82e <__vector_15+0x308>
						break;
 676:	82 e0       	ldi	r24, 0x02	; 2
					}
					case 0x0d:{                      //1101 -- 하나걸림 -우회전
						motor(RIGHT);
 678:	45 de       	rcall	.-886    	; 0x304 <motor>
 67a:	d9 c0       	rjmp	.+434    	; 0x82e <__vector_15+0x308>
 67c:	81 e0       	ldi	r24, 0x01	; 1
						break;
 67e:	42 de       	rcall	.-892    	; 0x304 <motor>
					}
					default:
						motor(STRAIGHT);
 680:	d6 c0       	rjmp	.+428    	; 0x82e <__vector_15+0x308>
 682:	80 e0       	ldi	r24, 0x00	; 0
 684:	3f de       	rcall	.-898    	; 0x304 <motor>
 686:	d3 c0       	rjmp	.+422    	; 0x82e <__vector_15+0x308>
				}
			}                                      //교차로 들어가기 전까지는 무조껀 직진
        }
    }else if(state == STATE_FORCE_LEFT){                            //-강제회전
 688:	23 30       	cpi	r18, 0x03	; 3
 68a:	31 05       	cpc	r19, r1
 68c:	09 f0       	breq	.+2      	; 0x690 <__vector_15+0x16a>
 68e:	82 c0       	rjmp	.+260    	; 0x794 <__vector_15+0x26e>
		
		if(80 != OCR0&&(smothStart==10)){
 690:	91 b7       	in	r25, 0x31	; 49
 692:	90 35       	cpi	r25, 0x50	; 80
 694:	51 f0       	breq	.+20     	; 0x6aa <__vector_15+0x184>
 696:	90 91 1f 01 	lds	r25, 0x011F	; 0x80011f <smothStart>
 69a:	9a 30       	cpi	r25, 0x0A	; 10
 69c:	31 f4       	brne	.+12     	; 0x6aa <__vector_15+0x184>
			OCR0++;
 69e:	91 b7       	in	r25, 0x31	; 49
 6a0:	9f 5f       	subi	r25, 0xFF	; 255
 6a2:	91 bf       	out	0x31, r25	; 49
			smothStart=0;
 6a4:	10 92 1f 01 	sts	0x011F, r1	; 0x80011f <smothStart>
 6a8:	05 c0       	rjmp	.+10     	; 0x6b4 <__vector_15+0x18e>
			
			}else{
			smothStart++;
 6aa:	90 91 1f 01 	lds	r25, 0x011F	; 0x80011f <smothStart>
 6ae:	9f 5f       	subi	r25, 0xFF	; 255
 6b0:	90 93 1f 01 	sts	0x011F, r25	; 0x80011f <smothStart>
		}
        if(!forceLeftSign){
 6b4:	90 91 24 01 	lds	r25, 0x0124	; 0x800124 <forceLeftSign>
 6b8:	91 11       	cpse	r25, r1
            if(stateForceSmoth==3){
 6ba:	29 c0       	rjmp	.+82     	; 0x70e <__vector_15+0x1e8>
 6bc:	80 91 1e 01 	lds	r24, 0x011E	; 0x80011e <stateForceSmoth>
 6c0:	83 30       	cpi	r24, 0x03	; 3
	            motor(STRAIGHT);
 6c2:	29 f4       	brne	.+10     	; 0x6ce <__vector_15+0x1a8>
 6c4:	80 e0       	ldi	r24, 0x00	; 0
	            stateForceSmoth=0;
 6c6:	1e de       	rcall	.-964    	; 0x304 <motor>
 6c8:	10 92 1e 01 	sts	0x011E, r1	; 0x80011e <stateForceSmoth>
	            }else{
	            stateForceSmoth++;
 6cc:	05 c0       	rjmp	.+10     	; 0x6d8 <__vector_15+0x1b2>
 6ce:	8f 5f       	subi	r24, 0xFF	; 255
 6d0:	80 93 1e 01 	sts	0x011E, r24	; 0x80011e <stateForceSmoth>
				motor(LEFT);   
 6d4:	82 e0       	ldi	r24, 0x02	; 2
 6d6:	16 de       	rcall	.-980    	; 0x304 <motor>
            }
			 forceStraight++;                                           //교차로에 들어간 뒤엔 회전만 합니다
 6d8:	80 91 1c 01 	lds	r24, 0x011C	; 0x80011c <__data_end>
 6dc:	90 91 1d 01 	lds	r25, 0x011D	; 0x80011d <__data_end+0x1>
 6e0:	01 96       	adiw	r24, 0x01	; 1
 6e2:	90 93 1d 01 	sts	0x011D, r25	; 0x80011d <__data_end+0x1>
 6e6:	80 93 1c 01 	sts	0x011C, r24	; 0x80011c <__data_end>
            if((forceStraight>320)&&(sensor == 0x0b)){                                        //강제 회전하다 라인 잡히면 트랙 타기
 6ea:	81 34       	cpi	r24, 0x41	; 65
 6ec:	91 40       	sbci	r25, 0x01	; 1
 6ee:	0c f4       	brge	.+2      	; 0x6f2 <__vector_15+0x1cc>
 6f0:	9e c0       	rjmp	.+316    	; 0x82e <__vector_15+0x308>
 6f2:	2b 97       	sbiw	r28, 0x0b	; 11
 6f4:	09 f0       	breq	.+2      	; 0x6f8 <__vector_15+0x1d2>
 6f6:	9b c0       	rjmp	.+310    	; 0x82e <__vector_15+0x308>
                state = STATE_RUNNING;
 6f8:	81 e0       	ldi	r24, 0x01	; 1
 6fa:	90 e0       	ldi	r25, 0x00	; 0
 6fc:	90 93 2b 01 	sts	0x012B, r25	; 0x80012b <state+0x1>
 700:	80 93 2a 01 	sts	0x012A, r24	; 0x80012a <state>
				forceStraight=0;
 704:	10 92 1d 01 	sts	0x011D, r1	; 0x80011d <__data_end+0x1>
 708:	10 92 1c 01 	sts	0x011C, r1	; 0x80011c <__data_end>
 70c:	90 c0       	rjmp	.+288    	; 0x82e <__vector_15+0x308>
            }
        }else{         
			if(timeNum<100&&(forceStraight<300)){
 70e:	20 91 1a 01 	lds	r18, 0x011A	; 0x80011a <timeNum>
 712:	30 91 1b 01 	lds	r19, 0x011B	; 0x80011b <timeNum+0x1>
 716:	24 36       	cpi	r18, 0x64	; 100
 718:	31 05       	cpc	r19, r1
 71a:	00 f5       	brcc	.+64     	; 0x75c <__vector_15+0x236>
 71c:	20 91 1c 01 	lds	r18, 0x011C	; 0x80011c <__data_end>
 720:	30 91 1d 01 	lds	r19, 0x011D	; 0x80011d <__data_end+0x1>
 724:	2c 32       	cpi	r18, 0x2C	; 44
 726:	31 40       	sbci	r19, 0x01	; 1
				motor(STRAIGHT);
 728:	cc f4       	brge	.+50     	; 0x75c <__vector_15+0x236>
 72a:	80 e0       	ldi	r24, 0x00	; 0
 72c:	eb dd       	rcall	.-1066   	; 0x304 <motor>
				forceStraight++;
 72e:	20 91 1c 01 	lds	r18, 0x011C	; 0x80011c <__data_end>
 732:	30 91 1d 01 	lds	r19, 0x011D	; 0x80011d <__data_end+0x1>
 736:	c9 01       	movw	r24, r18
 738:	01 96       	adiw	r24, 0x01	; 1
 73a:	90 93 1d 01 	sts	0x011D, r25	; 0x80011d <__data_end+0x1>
 73e:	80 93 1c 01 	sts	0x011C, r24	; 0x80011c <__data_end>
				if(forceStraight==240){
 742:	80 3f       	cpi	r24, 0xF0	; 240
 744:	91 05       	cpc	r25, r1
 746:	09 f0       	breq	.+2      	; 0x74a <__vector_15+0x224>
 748:	72 c0       	rjmp	.+228    	; 0x82e <__vector_15+0x308>
					forceLeftSign = 0;
 74a:	10 92 24 01 	sts	0x0124, r1	; 0x800124 <forceLeftSign>
					forceStraight++;
 74e:	2e 5f       	subi	r18, 0xFE	; 254
 750:	3f 4f       	sbci	r19, 0xFF	; 255
 752:	30 93 1d 01 	sts	0x011D, r19	; 0x80011d <__data_end+0x1>
 756:	20 93 1c 01 	sts	0x011C, r18	; 0x80011c <__data_end>
					
				}
			}else if(sensor == 0x00 || sensor == 0x01 || sensor == 0x08){
 75a:	69 c0       	rjmp	.+210    	; 0x82e <__vector_15+0x308>
 75c:	82 30       	cpi	r24, 0x02	; 2
 75e:	10 f0       	brcs	.+4      	; 0x764 <__vector_15+0x23e>
 760:	28 97       	sbiw	r28, 0x08	; 8
                forceLeftSign = 0;   
 762:	29 f4       	brne	.+10     	; 0x76e <__vector_15+0x248>
 764:	10 92 24 01 	sts	0x0124, r1	; 0x800124 <forceLeftSign>
				motor(LEFT);                               //교차로 나타나면 플래그 초기화 하고 강제로 돌림
 768:	82 e0       	ldi	r24, 0x02	; 2
 76a:	cc dd       	rcall	.-1128   	; 0x304 <motor>
            }else{
				switch(sensor){
 76c:	60 c0       	rjmp	.+192    	; 0x82e <__vector_15+0x308>
 76e:	8d 30       	cpi	r24, 0x0D	; 13
 770:	59 f0       	breq	.+22     	; 0x788 <__vector_15+0x262>
 772:	8f 30       	cpi	r24, 0x0F	; 15
 774:	19 f0       	breq	.+6      	; 0x77c <__vector_15+0x256>
					case 0x0f:
					motor(STRAIGHT);
 776:	8b 30       	cpi	r24, 0x0B	; 11
 778:	51 f4       	brne	.+20     	; 0x78e <__vector_15+0x268>
 77a:	03 c0       	rjmp	.+6      	; 0x782 <__vector_15+0x25c>
					break;
 77c:	80 e0       	ldi	r24, 0x00	; 0
					case 0x0b:{                      //1011 -- 하나걸림 좌회전
						motor(LEFT);
 77e:	c2 dd       	rcall	.-1148   	; 0x304 <motor>
 780:	56 c0       	rjmp	.+172    	; 0x82e <__vector_15+0x308>
 782:	82 e0       	ldi	r24, 0x02	; 2
						break;
 784:	bf dd       	rcall	.-1154   	; 0x304 <motor>
					}
					case 0x0d:{                      //1101 -- 하나걸림 -우회전
						motor(RIGHT);
 786:	53 c0       	rjmp	.+166    	; 0x82e <__vector_15+0x308>
 788:	81 e0       	ldi	r24, 0x01	; 1
 78a:	bc dd       	rcall	.-1160   	; 0x304 <motor>
						break;
 78c:	50 c0       	rjmp	.+160    	; 0x82e <__vector_15+0x308>
					}
					default:
						motor(STRAIGHT);
 78e:	80 e0       	ldi	r24, 0x00	; 0
 790:	b9 dd       	rcall	.-1166   	; 0x304 <motor>
 792:	4d c0       	rjmp	.+154    	; 0x82e <__vector_15+0x308>
 794:	24 30       	cpi	r18, 0x04	; 4
				}                                        //교차로 들어가기 전까지는 무조껀 직진
			}
        }
    }else if(state == STATE_CALIB_RIGHT){                           //-교차로를 틀어져서 왼쪽으로 들어갈때 칼리브레이션
 796:	31 05       	cpc	r19, r1
 798:	a9 f4       	brne	.+42     	; 0x7c4 <__vector_15+0x29e>
 79a:	cb 30       	cpi	r28, 0x0B	; 11
        if(sensor == 0x0b||sensor == 0x0d){                         //레일 위로 돌아가면 종료
 79c:	d1 05       	cpc	r29, r1
 79e:	19 f0       	breq	.+6      	; 0x7a6 <__vector_15+0x280>
 7a0:	cd 30       	cpi	r28, 0x0D	; 13
 7a2:	d1 05       	cpc	r29, r1
            state = STATE_RUNNING;
 7a4:	39 f4       	brne	.+14     	; 0x7b4 <__vector_15+0x28e>
 7a6:	81 e0       	ldi	r24, 0x01	; 1
 7a8:	90 e0       	ldi	r25, 0x00	; 0
 7aa:	90 93 2b 01 	sts	0x012B, r25	; 0x80012b <state+0x1>
 7ae:	80 93 2a 01 	sts	0x012A, r24	; 0x80012a <state>
        }else if(sensor == 0x0f){                                   //하나도 안걸릴때 일딴 오른쪽으로 돌림
 7b2:	3d c0       	rjmp	.+122    	; 0x82e <__vector_15+0x308>
 7b4:	2f 97       	sbiw	r28, 0x0f	; 15
            motor(RIGHT);
 7b6:	19 f4       	brne	.+6      	; 0x7be <__vector_15+0x298>
 7b8:	81 e0       	ldi	r24, 0x01	; 1
 7ba:	a4 dd       	rcall	.-1208   	; 0x304 <motor>
 7bc:	38 c0       	rjmp	.+112    	; 0x82e <__vector_15+0x308>
        }else{                                                      //교차로를 나오기 전까지는 무조껀 직진
            motor(STRAIGHT);
 7be:	80 e0       	ldi	r24, 0x00	; 0
 7c0:	a1 dd       	rcall	.-1214   	; 0x304 <motor>
 7c2:	35 c0       	rjmp	.+106    	; 0x82e <__vector_15+0x308>
 7c4:	25 30       	cpi	r18, 0x05	; 5
        }
    }else if(state == STATE_CALIB_LEFT){                            //-교차로를 틀어져서 오른쪽으로 들어갈때 칼리브레이션
 7c6:	31 05       	cpc	r19, r1
 7c8:	a9 f4       	brne	.+42     	; 0x7f4 <__vector_15+0x2ce>
        if(sensor == 0x0b||sensor == 0x0d){                         //레일 위로 돌아가면 종료
 7ca:	cb 30       	cpi	r28, 0x0B	; 11
 7cc:	d1 05       	cpc	r29, r1
 7ce:	19 f0       	breq	.+6      	; 0x7d6 <__vector_15+0x2b0>
 7d0:	cd 30       	cpi	r28, 0x0D	; 13
 7d2:	d1 05       	cpc	r29, r1
            state = STATE_RUNNING;
 7d4:	39 f4       	brne	.+14     	; 0x7e4 <__vector_15+0x2be>
 7d6:	81 e0       	ldi	r24, 0x01	; 1
 7d8:	90 e0       	ldi	r25, 0x00	; 0
 7da:	90 93 2b 01 	sts	0x012B, r25	; 0x80012b <state+0x1>
 7de:	80 93 2a 01 	sts	0x012A, r24	; 0x80012a <state>
        }else if(sensor == 0x0f){                                   //하나도 안걸릴때 일딴 오른쪽으로 돌림
 7e2:	25 c0       	rjmp	.+74     	; 0x82e <__vector_15+0x308>
 7e4:	2f 97       	sbiw	r28, 0x0f	; 15
            motor(LEFT);
 7e6:	19 f4       	brne	.+6      	; 0x7ee <__vector_15+0x2c8>
 7e8:	82 e0       	ldi	r24, 0x02	; 2
 7ea:	8c dd       	rcall	.-1256   	; 0x304 <motor>
 7ec:	20 c0       	rjmp	.+64     	; 0x82e <__vector_15+0x308>
        }else{                                                      //교차로를 나오기 전까지는 무조껀 직진
            motor(STRAIGHT);
 7ee:	80 e0       	ldi	r24, 0x00	; 0
 7f0:	89 dd       	rcall	.-1262   	; 0x304 <motor>
 7f2:	1d c0       	rjmp	.+58     	; 0x82e <__vector_15+0x308>
 7f4:	21 30       	cpi	r18, 0x01	; 1
        }
    }else if(state == STATE_RUNNING){
 7f6:	31 05       	cpc	r19, r1
 7f8:	d1 f4       	brne	.+52     	; 0x82e <__vector_15+0x308>
 7fa:	81 b7       	in	r24, 0x31	; 49
		if(timeNum != OCR0&&(smothStart==10)){
 7fc:	90 e0       	ldi	r25, 0x00	; 0
 7fe:	20 91 1a 01 	lds	r18, 0x011A	; 0x80011a <timeNum>
 802:	30 91 1b 01 	lds	r19, 0x011B	; 0x80011b <timeNum+0x1>
 806:	82 17       	cp	r24, r18
 808:	93 07       	cpc	r25, r19
 80a:	51 f0       	breq	.+20     	; 0x820 <__vector_15+0x2fa>
 80c:	80 91 1f 01 	lds	r24, 0x011F	; 0x80011f <smothStart>
 810:	8a 30       	cpi	r24, 0x0A	; 10
 812:	31 f4       	brne	.+12     	; 0x820 <__vector_15+0x2fa>
			OCR0--;
 814:	81 b7       	in	r24, 0x31	; 49
 816:	81 50       	subi	r24, 0x01	; 1
 818:	81 bf       	out	0x31, r24	; 49
			smothStart=0;
 81a:	10 92 1f 01 	sts	0x011F, r1	; 0x80011f <smothStart>
 81e:	05 c0       	rjmp	.+10     	; 0x82a <__vector_15+0x304>
			
			}else{
			smothStart++;
 820:	80 91 1f 01 	lds	r24, 0x011F	; 0x80011f <smothStart>
 824:	8f 5f       	subi	r24, 0xFF	; 255
 826:	80 93 1f 01 	sts	0x011F, r24	; 0x80011f <smothStart>
		}
		
        sensorScan(sensor);                    //일반적인 라인 팔로잉 상태
 82a:	ce 01       	movw	r24, r28
 82c:	dd dd       	rcall	.-1094   	; 0x3e8 <sensorScan>
 82e:	ff 91       	pop	r31
    }
}
 830:	ef 91       	pop	r30
 832:	df 91       	pop	r29
 834:	cf 91       	pop	r28
 836:	bf 91       	pop	r27
 838:	af 91       	pop	r26
 83a:	9f 91       	pop	r25
 83c:	8f 91       	pop	r24
 83e:	7f 91       	pop	r23
 840:	6f 91       	pop	r22
 842:	5f 91       	pop	r21
 844:	4f 91       	pop	r20
 846:	3f 91       	pop	r19
 848:	2f 91       	pop	r18
 84a:	0f 90       	pop	r0
 84c:	0b be       	out	0x3b, r0	; 59
 84e:	0f 90       	pop	r0
 850:	0f be       	out	0x3f, r0	; 63
 852:	0f 90       	pop	r0
 854:	1f 90       	pop	r1
 856:	18 95       	reti

00000858 <main>:
 858:	87 dc       	rcall	.-1778   	; 0x168 <initDevices>

int main(void){

    //initialize port and interrupt
    initDevices();
    initSegment();
 85a:	2e dd       	rcall	.-1444   	; 0x2b8 <initSegment>
    initInterrupt();
 85c:	36 dd       	rcall	.-1428   	; 0x2ca <initInterrupt>
    initTimerInterrupt();
 85e:	48 dd       	rcall	.-1392   	; 0x2f0 <initTimerInterrupt>
 860:	5b dc       	rcall	.-1866   	; 0x118 <initFlag>
    initFlag();
 862:	8f ef       	ldi	r24, 0xFF	; 255
 864:	81 bb       	out	0x11, r24	; 17
    
    MOTOR_PORT_DDR = 0xff;
 866:	78 94       	sei
 868:	0f 2e       	mov	r0, r31
    //Global Interrupt Enable
    sei();
 86a:	f8 ee       	ldi	r31, 0xE8	; 232
    //print 7segment by global variable timeNum
    //timeNum variable is state and OCR0
    while (1){
        //segment print
        for(int i = 0; i < 4; i++){
            printSeg(((state*1000 + timeNum)/exp10[i])%10,3-i); //OCR0를 세그먼트에 출력합니다.
 86c:	ef 2e       	mov	r14, r31
 86e:	f3 e0       	ldi	r31, 0x03	; 3
 870:	ff 2e       	mov	r15, r31
 872:	f0 2d       	mov	r31, r0
 874:	04 e0       	ldi	r16, 0x04	; 4
 876:	11 e0       	ldi	r17, 0x01	; 1
 878:	c3 e0       	ldi	r28, 0x03	; 3
 87a:	d0 e0       	ldi	r29, 0x00	; 0
        sensorScan(sensor);                    //일반적인 라인 팔로잉 상태
    }
}
///////////////////interrupt service routine end////////////////////////

int main(void){
 87c:	f8 01       	movw	r30, r16
 87e:	61 91       	ld	r22, Z+
    //print 7segment by global variable timeNum
    //timeNum variable is state and OCR0
    while (1){
        //segment print
        for(int i = 0; i < 4; i++){
            printSeg(((state*1000 + timeNum)/exp10[i])%10,3-i); //OCR0를 세그먼트에 출력합니다.
 880:	71 91       	ld	r23, Z+
 882:	8f 01       	movw	r16, r30
 884:	80 91 2a 01 	lds	r24, 0x012A	; 0x80012a <state>
 888:	90 91 2b 01 	lds	r25, 0x012B	; 0x80012b <state+0x1>
 88c:	8e 9d       	mul	r24, r14
 88e:	90 01       	movw	r18, r0
 890:	8f 9d       	mul	r24, r15
 892:	30 0d       	add	r19, r0
 894:	9e 9d       	mul	r25, r14
 896:	30 0d       	add	r19, r0
 898:	11 24       	eor	r1, r1
 89a:	80 91 1a 01 	lds	r24, 0x011A	; 0x80011a <timeNum>
 89e:	90 91 1b 01 	lds	r25, 0x011B	; 0x80011b <timeNum+0x1>
 8a2:	82 0f       	add	r24, r18
 8a4:	93 1f       	adc	r25, r19
 8a6:	1f d0       	rcall	.+62     	; 0x8e6 <__udivmodhi4>
 8a8:	ab 01       	movw	r20, r22
 8aa:	9b 01       	movw	r18, r22
 8ac:	ad ec       	ldi	r26, 0xCD	; 205
 8ae:	bc ec       	ldi	r27, 0xCC	; 204
 8b0:	37 d0       	rcall	.+110    	; 0x920 <__umulhisi3>
 8b2:	96 95       	lsr	r25
 8b4:	87 95       	ror	r24
 8b6:	96 95       	lsr	r25
 8b8:	87 95       	ror	r24
 8ba:	96 95       	lsr	r25
 8bc:	87 95       	ror	r24
 8be:	9c 01       	movw	r18, r24
 8c0:	22 0f       	add	r18, r18
 8c2:	33 1f       	adc	r19, r19
 8c4:	88 0f       	add	r24, r24
 8c6:	99 1f       	adc	r25, r25
 8c8:	88 0f       	add	r24, r24
 8ca:	99 1f       	adc	r25, r25
 8cc:	88 0f       	add	r24, r24
 8ce:	99 1f       	adc	r25, r25
 8d0:	82 0f       	add	r24, r18
 8d2:	93 1f       	adc	r25, r19
 8d4:	be 01       	movw	r22, r28
 8d6:	9a 01       	movw	r18, r20
 8d8:	28 1b       	sub	r18, r24
 8da:	39 0b       	sbc	r19, r25
 8dc:	c9 01       	movw	r24, r18
 8de:	dd dc       	rcall	.-1606   	; 0x29a <printSeg>
 8e0:	21 97       	sbiw	r28, 0x01	; 1
 8e2:	60 f6       	brcc	.-104    	; 0x87c <main+0x24>
 8e4:	c7 cf       	rjmp	.-114    	; 0x874 <main+0x1c>

000008e6 <__udivmodhi4>:
 8e6:	aa 1b       	sub	r26, r26
 8e8:	bb 1b       	sub	r27, r27
 8ea:	51 e1       	ldi	r21, 0x11	; 17
 8ec:	07 c0       	rjmp	.+14     	; 0x8fc <__udivmodhi4_ep>

000008ee <__udivmodhi4_loop>:
 8ee:	aa 1f       	adc	r26, r26
 8f0:	bb 1f       	adc	r27, r27
 8f2:	a6 17       	cp	r26, r22
 8f4:	b7 07       	cpc	r27, r23
 8f6:	10 f0       	brcs	.+4      	; 0x8fc <__udivmodhi4_ep>
 8f8:	a6 1b       	sub	r26, r22
 8fa:	b7 0b       	sbc	r27, r23

000008fc <__udivmodhi4_ep>:
 8fc:	88 1f       	adc	r24, r24
 8fe:	99 1f       	adc	r25, r25
 900:	5a 95       	dec	r21
 902:	a9 f7       	brne	.-22     	; 0x8ee <__udivmodhi4_loop>
 904:	80 95       	com	r24
 906:	90 95       	com	r25
 908:	bc 01       	movw	r22, r24
 90a:	cd 01       	movw	r24, r26
 90c:	08 95       	ret

0000090e <__tablejump2__>:
 90e:	ee 0f       	add	r30, r30
 910:	ff 1f       	adc	r31, r31
 912:	00 24       	eor	r0, r0
 914:	00 1c       	adc	r0, r0
 916:	0b be       	out	0x3b, r0	; 59
 918:	07 90       	elpm	r0, Z+
 91a:	f6 91       	elpm	r31, Z
 91c:	e0 2d       	mov	r30, r0
 91e:	09 94       	ijmp

00000920 <__umulhisi3>:
 920:	a2 9f       	mul	r26, r18
 922:	b0 01       	movw	r22, r0
 924:	b3 9f       	mul	r27, r19
 926:	c0 01       	movw	r24, r0
 928:	a3 9f       	mul	r26, r19
 92a:	70 0d       	add	r23, r0
 92c:	81 1d       	adc	r24, r1
 92e:	11 24       	eor	r1, r1
 930:	91 1d       	adc	r25, r1
 932:	b2 9f       	mul	r27, r18
 934:	70 0d       	add	r23, r0
 936:	81 1d       	adc	r24, r1
 938:	11 24       	eor	r1, r1
 93a:	91 1d       	adc	r25, r1
 93c:	08 95       	ret

0000093e <_exit>:
 93e:	f8 94       	cli

00000940 <__stop_program>:
 940:	ff cf       	rjmp	.-2      	; 0x940 <__stop_program>
